target datalayout = "e-m:e-p270:32:32-p271:32:32-p272:64:64-i64:64-i128:128-f80:128-n8:16:32:64-S128"
target triple = "x86_64-pc-linux-gnu"

%struct._packet_info = type { ptr, ptr, i32, i32, %struct.nstime_t, %struct.nstime_t, %struct.nstime_t, i8, ptr, ptr, ptr, ptr, %struct._address, %struct._address, %struct._address, %struct._address, %struct._address, %struct._address, i32, ptr, i8, [3 x i8], %struct.anon, i32, i32, i32, i32, ptr, i8, ptr, ptr, i16, i16, i32, i32, i16, i32, i32, ptr, ptr, ptr, i8, i8, i16, i16, i16, i32, i16, i16, ptr, ptr, ptr, ptr, ptr, i32, i32 }
%struct.nstime_t = type { i64, i32 }
%struct._address = type { i32, i32, ptr, ptr }
%struct.anon = type { i8, [3 x i8] }
%struct._frame_data = type <{ i32, i32, i32, i32, i32, [4 x i8], i64, ptr, ptr, ptr, i8, i16, [5 x i8], %struct.nstime_t, %struct.nstime_t, i32, i32 }>

@giop_tcp_handle = internal global ptr null, align 8
@giop_desegment = internal global i8 1, align 1
@.str.567 = private unnamed_addr constant [5 x i8] c"ZIOP\00", align 1

; Function Attrs: null_pointer_is_valid sspstrong uwtable
define internal i32 @dissect_giop_tcp(ptr noundef %0, ptr noundef %1, ptr noundef %2, ptr noundef %3) #0 {
  %5 = alloca i32, align 4
  %6 = alloca ptr, align 8
  %7 = alloca ptr, align 8
  %8 = alloca ptr, align 8
  %9 = alloca ptr, align 8
  store ptr %0, ptr %6, align 8
  store ptr %1, ptr %7, align 8
  store ptr %2, ptr %8, align 8
  store ptr %3, ptr %9, align 8
  %10 = load ptr, ptr %6, align 8
  %11 = call i32 @tvb_get_ntohl(ptr noundef %10, i32 noundef 0)
  %12 = icmp ne i32 %11, 1195986768
  br i1 %12, label %13, label %27

13:                                               ; preds = %4
  %14 = load ptr, ptr %6, align 8
  %15 = call i32 @tvb_memeql(ptr noundef %14, i32 noundef 0, ptr noundef @.str.567, i64 noundef 4)
  %16 = icmp eq i32 %15, 0
  br i1 %16, label %17, label %24

17:                                               ; preds = %13
  %18 = load ptr, ptr %6, align 8
  %19 = load ptr, ptr %7, align 8
  %20 = load ptr, ptr %8, align 8
  %21 = call zeroext i1 @dissect_ziop_heur(ptr noundef %18, ptr noundef %19, ptr noundef %20, ptr noundef null)
  br i1 %21, label %23, label %22

22:                                               ; preds = %17
  store i32 0, ptr %5, align 4
  br label %36

23:                                               ; preds = %17
  br label %24

24:                                               ; preds = %23, %13
  %25 = load ptr, ptr %6, align 8
  %26 = call i32 @tvb_captured_length(ptr noundef %25)
  store i32 %26, ptr %5, align 4
  br label %36

27:                                               ; preds = %4
  %28 = load ptr, ptr %6, align 8
  %29 = load ptr, ptr %7, align 8
  %30 = load ptr, ptr %8, align 8
  %31 = load i8, ptr @giop_desegment, align 1, !range !8, !noundef !9
  %32 = trunc i8 %31 to i1
  %33 = load ptr, ptr %9, align 8
  call void @tcp_dissect_pdus(ptr noundef %28, ptr noundef %29, ptr noundef %30, i1 noundef zeroext %32, i32 noundef 12, ptr noundef @get_giop_pdu_len, ptr noundef @dissect_giop_common, ptr noundef %33)
  %34 = load ptr, ptr %6, align 8
  %35 = call i32 @tvb_captured_length(ptr noundef %34)
  store i32 %35, ptr %5, align 4
  br label %36

36:                                               ; preds = %27, %24, %22
  %37 = load i32, ptr %5, align 4
  ret i32 %37
}

; Function Attrs: null_pointer_is_valid sspstrong uwtable
define internal zeroext i1 @dissect_giop_heur(ptr noundef %0, ptr noundef %1, ptr noundef %2, ptr noundef %3) #0 {
  %5 = alloca i1, align 1
  %6 = alloca ptr, align 8
  %7 = alloca ptr, align 8
  %8 = alloca ptr, align 8
  %9 = alloca ptr, align 8
  %10 = alloca i32, align 4
  %11 = alloca ptr, align 8
  %12 = alloca i32, align 4
  store ptr %0, ptr %6, align 8
  store ptr %1, ptr %7, align 8
  store ptr %2, ptr %8, align 8
  store ptr %3, ptr %9, align 8
  call void @llvm.lifetime.start.p0(i64 4, ptr %10) #14
  call void @llvm.lifetime.start.p0(i64 8, ptr %11) #14
  %13 = load ptr, ptr %6, align 8
  %14 = call i32 @tvb_captured_length(ptr noundef %13)
  store i32 %14, ptr %10, align 4
  %15 = load i32, ptr %10, align 4
  %16 = icmp ult i32 %15, 12
  br i1 %16, label %17, label %18

17:                                               ; preds = %4
  store i1 false, ptr %5, align 1
  store i32 1, ptr %12, align 4
  br label %56

18:                                               ; preds = %4
  %19 = load ptr, ptr %6, align 8
  %20 = call i32 @tvb_get_ntohl(ptr noundef %19, i32 noundef 0)
  %21 = icmp ne i32 %20, 1195986768
  br i1 %21, label %22, label %23

22:                                               ; preds = %18
  store i1 false, ptr %5, align 1
  store i32 1, ptr %12, align 4
  br label %56

23:                                               ; preds = %18
  %24 = load ptr, ptr %7, align 8
  %25 = getelementptr inbounds nuw %struct._packet_info, ptr %24, i32 0, i32 23
  %26 = load i32, ptr %25, align 8
  %27 = icmp eq i32 %26, 2
  br i1 %27, label %28, label %49

28:                                               ; preds = %23
  %29 = load ptr, ptr %7, align 8
  %30 = getelementptr inbounds nuw %struct._packet_info, ptr %29, i32 0, i32 8
  %31 = load ptr, ptr %30, align 8
  %32 = getelementptr inbounds nuw %struct._frame_data, ptr %31, i32 0, i32 11
  %33 = load i16, ptr %32, align 1
  %34 = lshr i16 %33, 3
  %35 = and i16 %34, 1
  %36 = zext i16 %35 to i32
  %37 = icmp ne i32 %36, 0
  br i1 %37, label %43, label %38

38:                                               ; preds = %28
  %39 = load ptr, ptr %7, align 8
  %40 = call ptr @find_or_create_conversation(ptr noundef %39)
  store ptr %40, ptr %11, align 8
  %41 = load ptr, ptr %11, align 8
  %42 = load ptr, ptr @giop_tcp_handle, align 8
  call void @conversation_set_dissector(ptr noundef %41, ptr noundef %42)
  br label %43

43:                                               ; preds = %38, %28
  %44 = load ptr, ptr %6, align 8
  %45 = load ptr, ptr %7, align 8
  %46 = load ptr, ptr %8, align 8
  %47 = load ptr, ptr %9, align 8
  %48 = call i32 @dissect_giop_tcp(ptr noundef %44, ptr noundef %45, ptr noundef %46, ptr noundef %47)
  br label %55

49:                                               ; preds = %23
  %50 = load ptr, ptr %6, align 8
  %51 = load ptr, ptr %7, align 8
  %52 = load ptr, ptr %8, align 8
  %53 = load ptr, ptr %9, align 8
  %54 = call i32 @dissect_giop_common(ptr noundef %50, ptr noundef %51, ptr noundef %52, ptr noundef %53)
  br label %55

55:                                               ; preds = %49, %43
  store i1 true, ptr %5, align 1
  store i32 1, ptr %12, align 4
  br label %56

56:                                               ; preds = %55, %22, %17
  call void @llvm.lifetime.end.p0(i64 8, ptr %11) #14
  call void @llvm.lifetime.end.p0(i64 4, ptr %10) #14
  %57 = load i1, ptr %5, align 1
  ret i1 %57
}