; Function Attrs: null_pointer_is_valid sspstrong uwtable
define internal noundef zeroext i1 @dissect_giop_heur(ptr noundef %0, ptr noundef %1, ptr noundef %2, ptr noundef %3) #0 {
  %5 = tail call i32 @tvb_captured_length(ptr noundef %0)
  %6 = icmp ult i32 %5, 12
  br i1 %6, label %dissect_giop_tcp.exit, label %7

7:                                                ; preds = %4
  %8 = tail call i32 @tvb_get_ntohl(ptr noundef %0, i32 noundef 0)
  %.not = icmp eq i32 %8, 1195986768
  br i1 %.not, label %9, label %dissect_giop_tcp.exit

9:                                                ; preds = %7
  %10 = getelementptr inbounds nuw i8, ptr %1, i64 280
  %11 = load i32, ptr %10, align 8
  %12 = icmp eq i32 %11, 2
  br i1 %12, label %13, label %33

13:                                               ; preds = %9
  %14 = getelementptr inbounds nuw i8, ptr %1, i64 80
  %15 = load ptr, ptr %14, align 8
  %16 = getelementptr inbounds nuw i8, ptr %15, i64 57
  %17 = load i16, ptr %16, align 1
  %18 = and i16 %17, 8
  %.not15 = icmp eq i16 %18, 0
  br i1 %.not15, label %19, label %22

19:                                               ; preds = %13
  %20 = tail call ptr @find_or_create_conversation(ptr noundef %1)
  %21 = load ptr, ptr @giop_tcp_handle, align 8
  tail call void @conversation_set_dissector(ptr noundef %20, ptr noundef %21)
  br label %22

22:                                               ; preds = %19, %13
  %23 = tail call i32 @tvb_get_ntohl(ptr noundef %0, i32 noundef 0)
  %.not.i = icmp eq i32 %23, 1195986768
  br i1 %.not.i, label %29, label %24

24:                                               ; preds = %22
  %25 = tail call i32 @tvb_memeql(ptr noundef %0, i32 noundef 0, ptr noundef nonnull @.str.567, i64 noundef 4)
  %26 = icmp eq i32 %25, 0
  br i1 %26, label %27, label %.sink.split.i

27:                                               ; preds = %24
  %28 = tail call zeroext i1 @dissect_ziop_heur(ptr noundef %0, ptr noundef %1, ptr noundef %2, ptr noundef null)
  br i1 %28, label %.sink.split.i, label %dissect_giop_tcp.exit

29:                                               ; preds = %22
  %30 = load i8, ptr @giop_desegment, align 1, !range !29, !noundef !30
  %31 = trunc nuw i8 %30 to i1
  tail call void @tcp_dissect_pdus(ptr noundef %0, ptr noundef %1, ptr noundef %2, i1 noundef zeroext %31, i32 noundef 12, ptr noundef nonnull @get_giop_pdu_len, ptr noundef nonnull @dissect_giop_common, ptr noundef %3)
  br label %.sink.split.i

.sink.split.i:                                    ; preds = %29, %27, %24
  %32 = tail call i32 @tvb_captured_length(ptr noundef %0)
  br label %dissect_giop_tcp.exit

33:                                               ; preds = %9
  %34 = tail call i32 @dissect_giop_common(ptr noundef %0, ptr noundef %1, ptr noundef %2, ptr poison)
  br label %dissect_giop_tcp.exit

dissect_giop_tcp.exit:                            ; preds = %.sink.split.i, %27, %33, %7, %4
  %.0 = phi i1 [ false, %4 ], [ false, %7 ], [ true, %33 ], [ true, %27 ], [ true, %.sink.split.i ]
  ret i1 %.0
}